; ModuleID = '28/218.c'
source_filename = "28/218.c"
target datalayout = "e-m:e-p270:32:32-p271:32:32-p272:64:64-i64:64-f80:128-n8:16:32:64-S128"
target triple = "x86_64-pc-linux-gnu"

@.str = private unnamed_addr constant [3 x i8] c"%d\00", align 1
@.str.1 = private unnamed_addr constant [4 x i8] c",%d\00", align 1

; Function Attrs: noinline nounwind uwtable
define dso_local void @main() #0 {
  %1 = alloca [10000 x i8], align 16
  %2 = alloca i8, align 1
  %3 = alloca [300 x i32], align 16
  %4 = alloca i32, align 4
  %5 = alloca i32, align 4
  %6 = alloca i32, align 4
  %7 = alloca i32, align 4
  %8 = alloca i32, align 4
  %9 = bitcast [300 x i32]* %3 to i8*
  call void @llvm.memset.p0i8.i64(i8* align 16 %9, i8 0, i64 1200, i1 false)
  store i32 0, i32* %6, align 4
  store i32 0, i32* %7, align 4
  store i32 0, i32* %8, align 4
  %10 = getelementptr inbounds [10000 x i8], [10000 x i8]* %1, i64 0, i64 0
  %11 = call i32 (i8*, ...) bitcast (i32 (...)* @gets to i32 (i8*, ...)*)(i8* %10)
  store i32 0, i32* %4, align 4
  br label %12

12:                                               ; preds = %75, %0
  %13 = load i32, i32* %4, align 4
  %14 = sext i32 %13 to i64
  %15 = getelementptr inbounds [10000 x i8], [10000 x i8]* %1, i64 0, i64 %14
  %16 = load i8, i8* %15, align 1
  store i8 %16, i8* %2, align 1
  %17 = sext i8 %16 to i32
  %18 = icmp ne i32 %17, 0
  br i1 %18, label %19, label %78

19:                                               ; preds = %12
  %20 = load i32, i32* %4, align 4
  %21 = sext i32 %20 to i64
  %22 = getelementptr inbounds [10000 x i8], [10000 x i8]* %1, i64 0, i64 %21
  %23 = load i8, i8* %22, align 1
  %24 = sext i8 %23 to i32
  %25 = icmp ne i32 %24, 32
  br i1 %25, label %26, label %61

26:                                               ; preds = %19
  %27 = load i32, i32* %7, align 4
  %28 = icmp eq i32 %27, 0
  br i1 %28, label %29, label %60

29:                                               ; preds = %26
  store i32 1, i32* %7, align 4
  store i32 0, i32* %5, align 4
  br label %30

30:                                               ; preds = %56, %29
  %31 = load i32, i32* %4, align 4
  %32 = load i32, i32* %5, align 4
  %33 = add nsw i32 %31, %32
  %34 = sext i32 %33 to i64
  %35 = getelementptr inbounds [10000 x i8], [10000 x i8]* %1, i64 0, i64 %34
  %36 = load i8, i8* %35, align 1
  store i8 %36, i8* %2, align 1
  %37 = sext i8 %36 to i32
  %38 = icmp ne i32 %37, 32
  br i1 %38, label %39, label %48

39:                                               ; preds = %30
  %40 = load i32, i32* %4, align 4
  %41 = load i32, i32* %5, align 4
  %42 = add nsw i32 %40, %41
  %43 = sext i32 %42 to i64
  %44 = getelementptr inbounds [10000 x i8], [10000 x i8]* %1, i64 0, i64 %43
  %45 = load i8, i8* %44, align 1
  store i8 %45, i8* %2, align 1
  %46 = sext i8 %45 to i32
  %47 = icmp ne i32 %46, 0
  br label %48

48:                                               ; preds = %39, %30
  %49 = phi i1 [ false, %30 ], [ %47, %39 ]
  br i1 %49, label %50, label %59

50:                                               ; preds = %48
  %51 = load i32, i32* %6, align 4
  %52 = sext i32 %51 to i64
  %53 = getelementptr inbounds [300 x i32], [300 x i32]* %3, i64 0, i64 %52
  %54 = load i32, i32* %53, align 4
  %55 = add nsw i32 %54, 1
  store i32 %55, i32* %53, align 4
  br label %56

56:                                               ; preds = %50
  %57 = load i32, i32* %5, align 4
  %58 = add nsw i32 %57, 1
  store i32 %58, i32* %5, align 4
  br label %30

59:                                               ; preds = %48
  br label %60

60:                                               ; preds = %59, %26
  br label %74

61:                                               ; preds = %19
  %62 = load i32, i32* %4, align 4
  %63 = sub nsw i32 %62, 1
  %64 = sext i32 %63 to i64
  %65 = getelementptr inbounds [10000 x i8], [10000 x i8]* %1, i64 0, i64 %64
  %66 = load i8, i8* %65, align 1
  %67 = sext i8 %66 to i32
  %68 = icmp ne i32 %67, 32
  br i1 %68, label %69, label %72

69:                                               ; preds = %61
  store i32 0, i32* %7, align 4
  %70 = load i32, i32* %6, align 4
  %71 = add nsw i32 %70, 1
  store i32 %71, i32* %6, align 4
  br label %73

72:                                               ; preds = %61
  store i32 0, i32* %7, align 4
  br label %73

73:                                               ; preds = %72, %69
  br label %74

74:                                               ; preds = %73, %60
  br label %75

75:                                               ; preds = %74
  %76 = load i32, i32* %4, align 4
  %77 = add nsw i32 %76, 1
  store i32 %77, i32* %4, align 4
  br label %12

78:                                               ; preds = %12
  %79 = getelementptr inbounds [300 x i32], [300 x i32]* %3, i64 0, i64 0
  %80 = load i32, i32* %79, align 16
  %81 = call i32 (i8*, ...) @printf(i8* getelementptr inbounds ([3 x i8], [3 x i8]* @.str, i64 0, i64 0), i32 %80)
  store i32 1, i32* %4, align 4
  br label %82

82:                                               ; preds = %92, %78
  %83 = load i32, i32* %4, align 4
  %84 = load i32, i32* %6, align 4
  %85 = icmp sle i32 %83, %84
  br i1 %85, label %86, label %95

86:                                               ; preds = %82
  %87 = load i32, i32* %4, align 4
  %88 = sext i32 %87 to i64
  %89 = getelementptr inbounds [300 x i32], [300 x i32]* %3, i64 0, i64 %88
  %90 = load i32, i32* %89, align 4
  %91 = call i32 (i8*, ...) @printf(i8* getelementptr inbounds ([4 x i8], [4 x i8]* @.str.1, i64 0, i64 0), i32 %90)
  br label %92

92:                                               ; preds = %86
  %93 = load i32, i32* %4, align 4
  %94 = add nsw i32 %93, 1
  store i32 %94, i32* %4, align 4
  br label %82

95:                                               ; preds = %82
  ret void
}

; Function Attrs: argmemonly nounwind willreturn
declare void @llvm.memset.p0i8.i64(i8* nocapture writeonly, i8, i64, i1 immarg) #1

declare dso_local i32 @gets(...) #2

declare dso_local i32 @printf(i8*, ...) #2


!llvm.module.flags = !{!0}
!llvm.ident = !{!1}

!0 = !{i32 1, !"wchar_size", i32 4}
!1 = !{!"clang version 10.0.0-4ubuntu1 "}
