; ModuleID = 'source-C-CXX/27/218.c'
source_filename = "source-C-CXX/27/218.c"
target datalayout = "e-m:e-p270:32:32-p271:32:32-p272:64:64-i64:64-f80:128-n8:16:32:64-S128"
target triple = "x86_64-pc-linux-gnu"

@.str = private unnamed_addr constant [3 x i8] c"%d\00", align 1
@.str.1 = private unnamed_addr constant [4 x i8] c",%d\00", align 1

; Function Attrs: nounwind sspstrong uwtable
define dso_local void @main() local_unnamed_addr #0 {
  %1 = alloca [10000 x i8], align 16
  %2 = alloca [300 x i32], align 16
  %3 = getelementptr inbounds [10000 x i8], [10000 x i8]* %1, i64 0, i64 0
  call void @llvm.lifetime.start.p0i8(i64 10000, i8* nonnull %3) #5
  %4 = bitcast [300 x i32]* %2 to i8*
  call void @llvm.lifetime.start.p0i8(i64 1200, i8* nonnull %4) #5
  call void @llvm.memset.p0i8.i64(i8* noundef nonnull align 16 dereferenceable(1200) %4, i8 0, i64 1200, i1 false)
  %5 = call i32 (i8*, ...) bitcast (i32 (...)* @gets to i32 (i8*, ...)*)(i8* nonnull %3) #5
  br label %6

6:                                                ; preds = %33, %0
  %7 = phi i64 [ %36, %33 ], [ 0, %0 ]
  %8 = phi i32 [ %34, %33 ], [ 0, %0 ]
  %9 = phi i32 [ %35, %33 ], [ 0, %0 ]
  %10 = getelementptr inbounds [10000 x i8], [10000 x i8]* %1, i64 0, i64 %7
  %11 = load i8, i8* %10, align 1, !tbaa !5
  switch i8 %11, label %12 [
    i8 0, label %37
    i8 32, label %26
  ]

12:                                               ; preds = %6
  %13 = icmp eq i32 %9, 0
  br i1 %13, label %14, label %33

14:                                               ; preds = %12
  %15 = sext i32 %8 to i64
  %16 = getelementptr inbounds [300 x i32], [300 x i32]* %2, i64 0, i64 %15
  br label %17

17:                                               ; preds = %14, %22
  %18 = phi i64 [ 0, %14 ], [ %25, %22 ]
  %19 = add nuw nsw i64 %18, %7
  %20 = getelementptr inbounds [10000 x i8], [10000 x i8]* %1, i64 0, i64 %19
  %21 = load i8, i8* %20, align 1, !tbaa !5
  switch i8 %21, label %22 [
    i8 32, label %33
    i8 0, label %33
  ]

22:                                               ; preds = %17
  %23 = load i32, i32* %16, align 4, !tbaa !8
  %24 = add nsw i32 %23, 1
  store i32 %24, i32* %16, align 4, !tbaa !8
  %25 = add nuw i64 %18, 1
  br label %17, !llvm.loop !10

26:                                               ; preds = %6
  %27 = add nsw i64 %7, -1
  %28 = getelementptr inbounds [10000 x i8], [10000 x i8]* %1, i64 0, i64 %27
  %29 = load i8, i8* %28, align 1, !tbaa !5
  %30 = icmp ne i8 %29, 32
  %31 = zext i1 %30 to i32
  %32 = add nsw i32 %8, %31
  br label %33

33:                                               ; preds = %17, %17, %26, %12
  %34 = phi i32 [ %8, %12 ], [ %32, %26 ], [ %8, %17 ], [ %8, %17 ]
  %35 = phi i32 [ 1, %12 ], [ 0, %26 ], [ 1, %17 ], [ 1, %17 ]
  %36 = add nuw i64 %7, 1
  br label %6, !llvm.loop !12

37:                                               ; preds = %6
  %38 = getelementptr inbounds [300 x i32], [300 x i32]* %2, i64 0, i64 0
  %39 = load i32, i32* %38, align 16, !tbaa !8
  %40 = call i32 (i8*, ...) @printf(i8* nonnull dereferenceable(1) getelementptr inbounds ([3 x i8], [3 x i8]* @.str, i64 0, i64 0), i32 %39)
  %41 = icmp slt i32 %8, 1
  br i1 %41, label %52, label %42

42:                                               ; preds = %37
  %43 = add nuw i32 %8, 1
  %44 = zext i32 %43 to i64
  br label %45

45:                                               ; preds = %42, %45
  %46 = phi i64 [ 1, %42 ], [ %50, %45 ]
  %47 = getelementptr inbounds [300 x i32], [300 x i32]* %2, i64 0, i64 %46
  %48 = load i32, i32* %47, align 4, !tbaa !8
  %49 = call i32 (i8*, ...) @printf(i8* nonnull dereferenceable(1) getelementptr inbounds ([4 x i8], [4 x i8]* @.str.1, i64 0, i64 0), i32 %48)
  %50 = add nuw nsw i64 %46, 1
  %51 = icmp eq i64 %50, %44
  br i1 %51, label %52, label %45, !llvm.loop !13

52:                                               ; preds = %45, %37
  call void @llvm.lifetime.end.p0i8(i64 1200, i8* nonnull %4) #5
  call void @llvm.lifetime.end.p0i8(i64 10000, i8* nonnull %3) #5
  ret void
}

; Function Attrs: argmemonly mustprogress nofree nosync nounwind willreturn
declare void @llvm.lifetime.start.p0i8(i64 immarg, i8* nocapture) #1

; Function Attrs: argmemonly mustprogress nofree nounwind willreturn writeonly
declare void @llvm.memset.p0i8.i64(i8* nocapture writeonly, i8, i64, i1 immarg) #2

declare i32 @gets(...) local_unnamed_addr #3

; Function Attrs: nofree nounwind
declare noundef i32 @printf(i8* nocapture noundef readonly, ...) local_unnamed_addr #4

; Function Attrs: argmemonly mustprogress nofree nosync nounwind willreturn
declare void @llvm.lifetime.end.p0i8(i64 immarg, i8* nocapture) #1


!llvm.module.flags = !{!0, !1, !2, !3}
!llvm.ident = !{!4}

!0 = !{i32 1, !"wchar_size", i32 4}
!1 = !{i32 7, !"PIC Level", i32 2}
!2 = !{i32 7, !"PIE Level", i32 2}
!3 = !{i32 7, !"uwtable", i32 1}
!4 = !{!"clang version 13.0.0"}
!5 = !{!6, !6, i64 0}
!6 = !{!"omnipotent char", !7, i64 0}
!7 = !{!"Simple C/C++ TBAA"}
!8 = !{!9, !9, i64 0}
!9 = !{!"int", !6, i64 0}
!10 = distinct !{!10, !11}
!11 = !{!"llvm.loop.mustprogress"}
!12 = distinct !{!12, !11}
!13 = distinct !{!13, !11}
